; Function Attrs: nounwind sspstrong uwtable
define dso_local void @job_pause_locked(ptr noundef %0) local_unnamed_addr #0 {
  %2 = getelementptr inbounds nuw i8, ptr %0, i64 176
  %3 = load i32, ptr %2, align 8
  %4 = add i32 %3, 1
  store i32 %4, ptr %2, align 8
  %5 = getelementptr inbounds nuw i8, ptr %0, i64 181
  %6 = load i8, ptr %5, align 1, !range !4, !noundef !5
  %7 = trunc nuw i8 %6 to i1
  br i1 %7, label %job_enter_cond_locked.exit, label %8

8:                                                ; preds = %1
  %9 = getelementptr i8, ptr %0, i64 16
  %.val.i = load ptr, ptr %9, align 8
  %.not10.i = icmp eq ptr %.val.i, null
  br i1 %.not10.i, label %job_enter_cond_locked.exit, label %10

10:                                               ; preds = %8
  %11 = getelementptr inbounds nuw i8, ptr %0, i64 185
  %12 = load i8, ptr %11, align 1, !range !4, !noundef !5
  %13 = trunc nuw i8 %12 to i1
  br i1 %13, label %job_enter_cond_locked.exit, label %14

14:                                               ; preds = %10
  %15 = getelementptr inbounds nuw i8, ptr %0, i64 180
  %16 = load i8, ptr %15, align 4, !range !4, !noundef !5
  %17 = trunc nuw i8 %16 to i1
  br i1 %17, label %job_enter_cond_locked.exit, label %18

18:                                               ; preds = %14
  %19 = getelementptr inbounds nuw i8, ptr %0, i64 128
  tail call void @timer_del(ptr noundef nonnull %19) #15
  store i8 1, ptr %15, align 4
  tail call void @qemu_mutex_unlock_impl(ptr noundef nonnull @job_mutex, ptr noundef nonnull @.str, i32 noundef 106) #15
  %20 = load ptr, ptr %9, align 8
  tail call void @aio_co_wake(ptr noundef %20) #15
  %21 = load atomic i64, ptr @qemu_mutex_lock_func monotonic, align 8
  %22 = inttoptr i64 %21 to ptr
  tail call void %22(ptr noundef nonnull @job_mutex, ptr noundef nonnull @.str, i32 noundef 101) #15
  br label %job_enter_cond_locked.exit

job_enter_cond_locked.exit:                       ; preds = %18, %14, %10, %8, %1
  ret void
}